target datalayout = "e-m:e-p270:32:32-p271:32:32-p272:64:64-i64:64-i128:128-f80:128-n8:16:32:64-S128"
target triple = "x86_64-pc-linux-gnu"

%struct.luaL_Reg = type { ptr, ptr }

@.str.17 = private unnamed_addr constant [9 x i8] c"cmsgpack\00", align 1
@.str.18 = private unnamed_addr constant [6 x i8] c"_NAME\00", align 1
@.str.19 = private unnamed_addr constant [19 x i8] c"lua-cmsgpack 0.4.0\00", align 1
@.str.20 = private unnamed_addr constant [9 x i8] c"_VERSION\00", align 1
@.str.21 = private unnamed_addr constant [41 x i8] c"Copyright (C) 2012, Salvatore Sanfilippo\00", align 1
@.str.22 = private unnamed_addr constant [11 x i8] c"_COPYRIGHT\00", align 1
@.str.23 = private unnamed_addr constant [37 x i8] c"MessagePack C implementation for Lua\00", align 1
@.str.24 = private unnamed_addr constant [13 x i8] c"_DESCRIPTION\00", align 1

; Function Attrs: nounwind uwtable
define dso_local i32 @luaopen_create(ptr noundef %0) #0 {
  %2 = alloca ptr, align 8
  %3 = alloca i32, align 4
  store ptr %0, ptr %2, align 8, !tbaa !17
  call void @llvm.lifetime.start.p0(i64 4, ptr %3) #6
  %4 = load ptr, ptr %2, align 8, !tbaa !17
  call void @lua_createtable(ptr noundef %4, i32 noundef 0, i32 noundef 0)
  store i32 0, ptr %3, align 4, !tbaa !12
  br label %5

5:                                                ; preds = %22, %1
  %6 = load i32, ptr %3, align 4, !tbaa !12
  %7 = sext i32 %6 to i64
  %8 = icmp ult i64 %7, 4
  br i1 %8, label %9, label %25

9:                                                ; preds = %5
  %10 = load ptr, ptr %2, align 8, !tbaa !17
  %11 = load i32, ptr %3, align 4, !tbaa !12
  %12 = sext i32 %11 to i64
  %13 = getelementptr inbounds [5 x %struct.luaL_Reg], ptr @cmds, i64 0, i64 %12
  %14 = getelementptr inbounds nuw %struct.luaL_Reg, ptr %13, i32 0, i32 1
  %15 = load ptr, ptr %14, align 8, !tbaa !43
  call void @lua_pushcclosure(ptr noundef %10, ptr noundef %15, i32 noundef 0)
  %16 = load ptr, ptr %2, align 8, !tbaa !17
  %17 = load i32, ptr %3, align 4, !tbaa !12
  %18 = sext i32 %17 to i64
  %19 = getelementptr inbounds [5 x %struct.luaL_Reg], ptr @cmds, i64 0, i64 %18
  %20 = getelementptr inbounds nuw %struct.luaL_Reg, ptr %19, i32 0, i32 0
  %21 = load ptr, ptr %20, align 16, !tbaa !45
  call void @lua_setfield(ptr noundef %16, i32 noundef -2, ptr noundef %21)
  br label %22

22:                                               ; preds = %9
  %23 = load i32, ptr %3, align 4, !tbaa !12
  %24 = add nsw i32 %23, 1
  store i32 %24, ptr %3, align 4, !tbaa !12
  br label %5, !llvm.loop !46

25:                                               ; preds = %5
  %26 = load ptr, ptr %2, align 8, !tbaa !17
  call void @lua_pushlstring(ptr noundef %26, ptr noundef @.str.17, i64 noundef 8)
  %27 = load ptr, ptr %2, align 8, !tbaa !17
  call void @lua_setfield(ptr noundef %27, i32 noundef -2, ptr noundef @.str.18)
  %28 = load ptr, ptr %2, align 8, !tbaa !17
  call void @lua_pushlstring(ptr noundef %28, ptr noundef @.str.19, i64 noundef 18)
  %29 = load ptr, ptr %2, align 8, !tbaa !17
  call void @lua_setfield(ptr noundef %29, i32 noundef -2, ptr noundef @.str.20)
  %30 = load ptr, ptr %2, align 8, !tbaa !17
  call void @lua_pushlstring(ptr noundef %30, ptr noundef @.str.21, i64 noundef 40)
  %31 = load ptr, ptr %2, align 8, !tbaa !17
  call void @lua_setfield(ptr noundef %31, i32 noundef -2, ptr noundef @.str.22)
  %32 = load ptr, ptr %2, align 8, !tbaa !17
  call void @lua_pushlstring(ptr noundef %32, ptr noundef @.str.23, i64 noundef 36)
  %33 = load ptr, ptr %2, align 8, !tbaa !17
  call void @lua_setfield(ptr noundef %33, i32 noundef -2, ptr noundef @.str.24)
  call void @llvm.lifetime.end.p0(i64 4, ptr %3) #6
  ret i32 1
}