; Function Attrs: nounwind uwtable
define dso_local noundef i32 @luaopen_create(ptr noundef %0) local_unnamed_addr #2 {
  tail call void @lua_createtable(ptr noundef %0, i32 noundef 0, i32 noundef 0) #10
  br label %2

2:                                                ; preds = %1, %2
  %indvars.iv = phi i64 [ 0, %1 ], [ %indvars.iv.next, %2 ]
  %3 = getelementptr inbounds nuw [5 x %struct.luaL_Reg], ptr @cmds, i64 0, i64 %indvars.iv
  %4 = getelementptr inbounds nuw i8, ptr %3, i64 8
  %5 = load ptr, ptr %4, align 8, !tbaa !35
  tail call void @lua_pushcclosure(ptr noundef %0, ptr noundef %5, i32 noundef 0) #10
  %6 = load ptr, ptr %3, align 16, !tbaa !37
  tail call void @lua_setfield(ptr noundef %0, i32 noundef -2, ptr noundef %6) #10
  %indvars.iv.next = add nuw nsw i64 %indvars.iv, 1
  %exitcond.not = icmp eq i64 %indvars.iv.next, 4
  br i1 %exitcond.not, label %7, label %2, !llvm.loop !38

7:                                                ; preds = %2
  tail call void @lua_pushlstring(ptr noundef %0, ptr noundef nonnull @.str.17, i64 noundef 8) #10
  tail call void @lua_setfield(ptr noundef %0, i32 noundef -2, ptr noundef nonnull @.str.18) #10
  tail call void @lua_pushlstring(ptr noundef %0, ptr noundef nonnull @.str.19, i64 noundef 18) #10
  tail call void @lua_setfield(ptr noundef %0, i32 noundef -2, ptr noundef nonnull @.str.20) #10
  tail call void @lua_pushlstring(ptr noundef %0, ptr noundef nonnull @.str.21, i64 noundef 40) #10
  tail call void @lua_setfield(ptr noundef %0, i32 noundef -2, ptr noundef nonnull @.str.22) #10
  tail call void @lua_pushlstring(ptr noundef %0, ptr noundef nonnull @.str.23, i64 noundef 36) #10
  tail call void @lua_setfield(ptr noundef %0, i32 noundef -2, ptr noundef nonnull @.str.24) #10
  ret i32 1
}